target datalayout = "e-m:e-p270:32:32-p271:32:32-p272:64:64-i64:64-i128:128-f80:128-n8:16:32:64-S128"
target triple = "x86_64-pc-linux-gnu"

%"class.open_spiel::spades::Trick" = type { i32, i32, i32, i32, i32 }

; Function Attrs: mustprogress nounwind uwtable
define internal noundef i32 @_ZN10open_spiel6spades12_GLOBAL__N_18CardRankEi(i32 noundef %0) #5 {
  %2 = alloca i32, align 4
  store i32 %0, ptr %2, align 4
  %3 = load i32, ptr %2, align 4
  %4 = srem i32 %3, 13
  ret i32 %4
}

; Function Attrs: mustprogress nounwind uwtable
define internal noundef i32 @_ZN10open_spiel6spades12_GLOBAL__N_18CardSuitEi(i32 noundef %0) #5 {
  %2 = alloca i32, align 4
  store i32 %0, ptr %2, align 4
  %3 = load i32, ptr %2, align 4
  %4 = sdiv i32 %3, 13
  ret i32 %4
}

; Function Attrs: mustprogress uwtable
define void @_ZN10open_spiel6spades5TrickC2Eii(ptr noundef nonnull align 4 dereferenceable(20) %0, i32 noundef %1, i32 noundef %2) unnamed_addr #4 align 2 {
  %4 = alloca ptr, align 8
  %5 = alloca i32, align 4
  %6 = alloca i32, align 4
  store ptr %0, ptr %4, align 8
  store i32 %1, ptr %5, align 4
  store i32 %2, ptr %6, align 4
  %7 = load ptr, ptr %4, align 8
  %8 = getelementptr inbounds nuw %"class.open_spiel::spades::Trick", ptr %7, i32 0, i32 0
  %9 = load i32, ptr %6, align 4
  %10 = call noundef i32 @_ZN10open_spiel6spades12_GLOBAL__N_18CardSuitEi(i32 noundef %9)
  store i32 %10, ptr %8, align 4
  %11 = getelementptr inbounds nuw %"class.open_spiel::spades::Trick", ptr %7, i32 0, i32 1
  %12 = load i32, ptr %6, align 4
  %13 = call noundef i32 @_ZN10open_spiel6spades12_GLOBAL__N_18CardSuitEi(i32 noundef %12)
  store i32 %13, ptr %11, align 4
  %14 = getelementptr inbounds nuw %"class.open_spiel::spades::Trick", ptr %7, i32 0, i32 2
  %15 = load i32, ptr %6, align 4
  %16 = call noundef i32 @_ZN10open_spiel6spades12_GLOBAL__N_18CardRankEi(i32 noundef %15)
  store i32 %16, ptr %14, align 4
  %17 = getelementptr inbounds nuw %"class.open_spiel::spades::Trick", ptr %7, i32 0, i32 3
  %18 = load i32, ptr %5, align 4
  store i32 %18, ptr %17, align 4
  %19 = getelementptr inbounds nuw %"class.open_spiel::spades::Trick", ptr %7, i32 0, i32 4
  %20 = load i32, ptr %5, align 4
  store i32 %20, ptr %19, align 4
  ret void
}