; Function Attrs: mustprogress nofree norecurse nosync nounwind willreturn memory(argmem: write) uwtable
define void @_ZN10open_spiel6spades5TrickC2Eii(ptr nocapture noundef nonnull writeonly align 4 dereferenceable(20) %0, i32 noundef %1, i32 noundef %2) unnamed_addr #10 align 2 {
  %4 = sdiv i32 %2, 13
  store i32 %4, ptr %0, align 4
  %5 = getelementptr inbounds nuw i8, ptr %0, i64 4
  store i32 %4, ptr %5, align 4
  %6 = getelementptr inbounds nuw i8, ptr %0, i64 8
  %7 = srem i32 %2, 13
  store i32 %7, ptr %6, align 4
  %8 = getelementptr inbounds nuw i8, ptr %0, i64 12
  store i32 %1, ptr %8, align 4
  %9 = getelementptr inbounds nuw i8, ptr %0, i64 16
  store i32 %1, ptr %9, align 4
  ret void
}